target datalayout = "e-m:e-p270:32:32-p271:32:32-p272:64:64-i64:64-i128:128-f80:128-n8:16:32:64-S128"
target triple = "x86_64-pc-linux-gnu"

%struct.gmx_wallcycle = type <{ %"struct.gmx::EnumerationArray", i64, %"struct.gmx::EnumerationArray.2", ptr, %"class.std::vector", i32, i32, i64, i8, i8, %"struct.std::array", i8, i32, i8, [7 x i8] }>
%"struct.gmx::EnumerationArray" = type { [52 x %struct.wallcc_t] }
%struct.wallcc_t = type { i32, i64, i64 }
%"struct.gmx::EnumerationArray.2" = type { [41 x %struct.wallcc_t] }
%"class.std::vector" = type { %"struct.std::_Vector_base" }
%"struct.std::_Vector_base" = type { %"struct.std::_Vector_base<wallcc_t, std::allocator<wallcc_t>>::_Vector_impl" }
%"struct.std::_Vector_base<wallcc_t, std::allocator<wallcc_t>>::_Vector_impl" = type { %"struct.std::_Vector_base<wallcc_t, std::allocator<wallcc_t>>::_Vector_impl_data" }
%"struct.std::_Vector_base<wallcc_t, std::allocator<wallcc_t>>::_Vector_impl_data" = type { ptr, ptr, ptr }
%"struct.std::array" = type { %"struct.std::__array_traits<WallCycleCounter, 0>::_Type" }
%"struct.std::__array_traits<WallCycleCounter, 0>::_Type" = type { i8 }

; Function Attrs: mustprogress nounwind uwtable
define linkonce_odr noundef nonnull align 8 dereferenceable(24) ptr @_ZN3gmx16EnumerationArrayI16WallCycleCounter8wallcc_tLS1_52EEixES1_(ptr noundef nonnull align 8 dereferenceable(1248) %0, i32 noundef %1) #1 comdat align 2 {
  %3 = alloca ptr, align 8
  %4 = alloca i32, align 4
  store ptr %0, ptr %3, align 8
  store i32 %1, ptr %4, align 4
  %5 = load ptr, ptr %3, align 8
  %6 = getelementptr inbounds %"struct.gmx::EnumerationArray", ptr %5, i32 0, i32 0
  %7 = load i32, ptr %4, align 4
  %8 = sext i32 %7 to i64
  %9 = getelementptr inbounds [52 x %struct.wallcc_t], ptr %6, i64 0, i64 %8
  ret ptr %9
}

; Function Attrs: mustprogress uwtable
define void @_Z13wallcycle_getP13gmx_wallcycle16WallCycleCounterPiPd(ptr noundef %0, i32 noundef %1, ptr noundef %2, ptr noundef %3) #0 {
  %5 = alloca ptr, align 8
  %6 = alloca i32, align 4
  %7 = alloca ptr, align 8
  %8 = alloca ptr, align 8
  store ptr %0, ptr %5, align 8
  store i32 %1, ptr %6, align 4
  store ptr %2, ptr %7, align 8
  store ptr %3, ptr %8, align 8
  %9 = load ptr, ptr %5, align 8
  %10 = getelementptr inbounds %struct.gmx_wallcycle, ptr %9, i32 0, i32 0
  %11 = load i32, ptr %6, align 4
  %12 = call noundef nonnull align 8 dereferenceable(24) ptr @_ZN3gmx16EnumerationArrayI16WallCycleCounter8wallcc_tLS1_52EEixES1_(ptr noundef nonnull align 8 dereferenceable(1248) %10, i32 noundef %11)
  %13 = getelementptr inbounds %struct.wallcc_t, ptr %12, i32 0, i32 0
  %14 = load i32, ptr %13, align 8
  %15 = load ptr, ptr %7, align 8
  store i32 %14, ptr %15, align 4
  %16 = load ptr, ptr %5, align 8
  %17 = getelementptr inbounds %struct.gmx_wallcycle, ptr %16, i32 0, i32 0
  %18 = load i32, ptr %6, align 4
  %19 = call noundef nonnull align 8 dereferenceable(24) ptr @_ZN3gmx16EnumerationArrayI16WallCycleCounter8wallcc_tLS1_52EEixES1_(ptr noundef nonnull align 8 dereferenceable(1248) %17, i32 noundef %18)
  %20 = getelementptr inbounds %struct.wallcc_t, ptr %19, i32 0, i32 1
  %21 = load i64, ptr %20, align 8
  %22 = uitofp i64 %21 to double
  %23 = load ptr, ptr %8, align 8
  store double %22, ptr %23, align 8
  ret void
}