; Function Attrs: mustprogress nofree norecurse nosync nounwind willreturn memory(argmem: readwrite) uwtable
define void @_Z13wallcycle_getP13gmx_wallcycle16WallCycleCounterPiPd(ptr nocapture noundef readonly %0, i32 noundef %1, ptr nocapture noundef writeonly %2, ptr nocapture noundef writeonly %3) local_unnamed_addr #10 {
  %5 = sext i32 %1 to i64
  %6 = getelementptr inbounds [52 x %struct.wallcc_t], ptr %0, i64 0, i64 %5
  %7 = load i32, ptr %6, align 8
  store i32 %7, ptr %2, align 4
  %8 = getelementptr inbounds i8, ptr %6, i64 8
  %9 = load i64, ptr %8, align 8
  %10 = uitofp i64 %9 to double
  store double %10, ptr %3, align 8
  ret void
}